target datalayout = "e-m:e-p270:32:32-p271:32:32-p272:64:64-i64:64-i128:128-f80:128-n8:16:32:64-S128"
target triple = "x86_64-pc-linux-gnu"

%"class.Imf_3_4::TypedAttribute" = type { %"class.Imf_3_4::Attribute", %"class.Imf_3_4::CompressedIDManifest" }
%"class.Imf_3_4::Attribute" = type { ptr }
%"class.Imf_3_4::CompressedIDManifest" = type { i32, i64, ptr }

; Function Attrs: inlinehint mustprogress uwtable
define linkonce_odr hidden void @_ZN7Imf_3_48StreamIO10writeCharsERNS_7OStreamEPKci(ptr noundef nonnull align 8 dereferenceable(40) %0, ptr noundef %1, i32 noundef %2) #11 comdat align 2 {
  %4 = alloca ptr, align 8
  %5 = alloca ptr, align 8
  %6 = alloca i32, align 4
  store ptr %0, ptr %4, align 8, !tbaa !14
  store ptr %1, ptr %5, align 8, !tbaa !26
  store i32 %2, ptr %6, align 4, !tbaa !16
  %7 = load ptr, ptr %4, align 8, !tbaa !14
  %8 = load ptr, ptr %5, align 8, !tbaa !26
  %9 = load i32, ptr %6, align 4, !tbaa !16
  %10 = load ptr, ptr %7, align 8, !tbaa !10
  %11 = getelementptr inbounds ptr, ptr %10, i64 2
  %12 = load ptr, ptr %11, align 8
  call void %12(ptr noundef nonnull align 8 dereferenceable(40) %7, ptr noundef %8, i32 noundef %9)
  ret void
}

; Function Attrs: inlinehint mustprogress uwtable
define linkonce_odr hidden void @_ZN7Imf_3_43Xdr18writeUnsignedCharsINS_8StreamIOENS_7OStreamEEEvRT0_PKhi(ptr noundef nonnull align 8 dereferenceable(40) %0, ptr noundef %1, i32 noundef %2) #11 comdat {
  %4 = alloca ptr, align 8
  %5 = alloca ptr, align 8
  %6 = alloca i32, align 4
  store ptr %0, ptr %4, align 8, !tbaa !14
  store ptr %1, ptr %5, align 8, !tbaa !26
  store i32 %2, ptr %6, align 4, !tbaa !16
  %7 = load ptr, ptr %4, align 8, !tbaa !14
  %8 = load ptr, ptr %5, align 8, !tbaa !26
  %9 = load i32, ptr %6, align 4, !tbaa !16
  call void @_ZN7Imf_3_48StreamIO10writeCharsERNS_7OStreamEPKci(ptr noundef nonnull align 8 dereferenceable(40) %7, ptr noundef %8, i32 noundef %9)
  ret void
}

; Function Attrs: inlinehint mustprogress uwtable
define linkonce_odr hidden void @_ZN7Imf_3_43Xdr5writeINS_8StreamIOENS_7OStreamEEEvRT0_PKci(ptr noundef nonnull align 8 dereferenceable(40) %0, ptr noundef %1, i32 noundef %2) #11 comdat {
  %4 = alloca ptr, align 8
  %5 = alloca ptr, align 8
  %6 = alloca i32, align 4
  store ptr %0, ptr %4, align 8, !tbaa !14
  store ptr %1, ptr %5, align 8, !tbaa !26
  store i32 %2, ptr %6, align 4, !tbaa !16
  %7 = load ptr, ptr %4, align 8, !tbaa !14
  %8 = load ptr, ptr %5, align 8, !tbaa !26
  %9 = load i32, ptr %6, align 4, !tbaa !16
  call void @_ZN7Imf_3_48StreamIO10writeCharsERNS_7OStreamEPKci(ptr noundef nonnull align 8 dereferenceable(40) %7, ptr noundef %8, i32 noundef %9)
  ret void
}

; Function Attrs: mustprogress uwtable
define linkonce_odr hidden void @_ZN7Imf_3_43Xdr5writeINS_8StreamIOENS_7OStreamEEEvRT0_m(ptr noundef nonnull align 8 dereferenceable(40) %0, i64 noundef %1) #4 comdat {
  %3 = alloca ptr, align 8
  %4 = alloca i64, align 8
  %5 = alloca [8 x i8], align 1
  store ptr %0, ptr %3, align 8, !tbaa !14
  store i64 %1, ptr %4, align 8, !tbaa !24
  call void @llvm.lifetime.start.p0(i64 8, ptr %5) #3
  %6 = load i64, ptr %4, align 8, !tbaa !24
  %7 = trunc i64 %6 to i8
  %8 = getelementptr inbounds [8 x i8], ptr %5, i64 0, i64 0
  store i8 %7, ptr %8, align 1, !tbaa !28
  %9 = load i64, ptr %4, align 8, !tbaa !24
  %10 = lshr i64 %9, 8
  %11 = trunc i64 %10 to i8
  %12 = getelementptr inbounds [8 x i8], ptr %5, i64 0, i64 1
  store i8 %11, ptr %12, align 1, !tbaa !28
  %13 = load i64, ptr %4, align 8, !tbaa !24
  %14 = lshr i64 %13, 16
  %15 = trunc i64 %14 to i8
  %16 = getelementptr inbounds [8 x i8], ptr %5, i64 0, i64 2
  store i8 %15, ptr %16, align 1, !tbaa !28
  %17 = load i64, ptr %4, align 8, !tbaa !24
  %18 = lshr i64 %17, 24
  %19 = trunc i64 %18 to i8
  %20 = getelementptr inbounds [8 x i8], ptr %5, i64 0, i64 3
  store i8 %19, ptr %20, align 1, !tbaa !28
  %21 = load i64, ptr %4, align 8, !tbaa !24
  %22 = lshr i64 %21, 32
  %23 = trunc i64 %22 to i8
  %24 = getelementptr inbounds [8 x i8], ptr %5, i64 0, i64 4
  store i8 %23, ptr %24, align 1, !tbaa !28
  %25 = load i64, ptr %4, align 8, !tbaa !24
  %26 = lshr i64 %25, 40
  %27 = trunc i64 %26 to i8
  %28 = getelementptr inbounds [8 x i8], ptr %5, i64 0, i64 5
  store i8 %27, ptr %28, align 1, !tbaa !28
  %29 = load i64, ptr %4, align 8, !tbaa !24
  %30 = lshr i64 %29, 48
  %31 = trunc i64 %30 to i8
  %32 = getelementptr inbounds [8 x i8], ptr %5, i64 0, i64 6
  store i8 %31, ptr %32, align 1, !tbaa !28
  %33 = load i64, ptr %4, align 8, !tbaa !24
  %34 = lshr i64 %33, 56
  %35 = trunc i64 %34 to i8
  %36 = getelementptr inbounds [8 x i8], ptr %5, i64 0, i64 7
  store i8 %35, ptr %36, align 1, !tbaa !28
  %37 = load ptr, ptr %3, align 8, !tbaa !14
  %38 = getelementptr inbounds [8 x i8], ptr %5, i64 0, i64 0
  call void @_ZN7Imf_3_43Xdr18writeUnsignedCharsINS_8StreamIOENS_7OStreamEEEvRT0_PKhi(ptr noundef nonnull align 8 dereferenceable(40) %37, ptr noundef %38, i32 noundef 8)
  call void @llvm.lifetime.end.p0(i64 8, ptr %5) #3
  ret void
}

; Function Attrs: mustprogress uwtable
define void @_ZNK7Imf_3_414TypedAttributeINS_20CompressedIDManifestEE12writeValueToERNS_7OStreamEi(ptr noundef nonnull align 8 dereferenceable(32) %0, ptr noundef nonnull align 8 dereferenceable(40) %1, i32 noundef %2) unnamed_addr #4 align 2 {
  %4 = alloca ptr, align 8
  %5 = alloca ptr, align 8
  %6 = alloca i32, align 4
  %7 = alloca i64, align 8
  %8 = alloca ptr, align 8
  store ptr %0, ptr %4, align 8, !tbaa !3
  store ptr %1, ptr %5, align 8, !tbaa !14
  store i32 %2, ptr %6, align 4, !tbaa !16
  %9 = load ptr, ptr %4, align 8
  call void @llvm.lifetime.start.p0(i64 8, ptr %7) #3
  %10 = getelementptr inbounds nuw %"class.Imf_3_4::TypedAttribute", ptr %9, i32 0, i32 1
  %11 = getelementptr inbounds nuw %"class.Imf_3_4::CompressedIDManifest", ptr %10, i32 0, i32 1
  %12 = load i64, ptr %11, align 8, !tbaa !18
  store i64 %12, ptr %7, align 8, !tbaa !24
  %13 = load ptr, ptr %5, align 8, !tbaa !14
  %14 = load i64, ptr %7, align 8, !tbaa !24
  call void @_ZN7Imf_3_43Xdr5writeINS_8StreamIOENS_7OStreamEEEvRT0_m(ptr noundef nonnull align 8 dereferenceable(40) %13, i64 noundef %14)
  call void @llvm.lifetime.start.p0(i64 8, ptr %8) #3
  %15 = getelementptr inbounds nuw %"class.Imf_3_4::TypedAttribute", ptr %9, i32 0, i32 1
  %16 = getelementptr inbounds nuw %"class.Imf_3_4::CompressedIDManifest", ptr %15, i32 0, i32 2
  %17 = load ptr, ptr %16, align 8, !tbaa !25
  store ptr %17, ptr %8, align 8, !tbaa !26
  %18 = load ptr, ptr %5, align 8, !tbaa !14
  %19 = load ptr, ptr %8, align 8, !tbaa !26
  %20 = getelementptr inbounds nuw %"class.Imf_3_4::TypedAttribute", ptr %9, i32 0, i32 1
  %21 = getelementptr inbounds nuw %"class.Imf_3_4::CompressedIDManifest", ptr %20, i32 0, i32 0
  %22 = load i32, ptr %21, align 8, !tbaa !27
  call void @_ZN7Imf_3_43Xdr5writeINS_8StreamIOENS_7OStreamEEEvRT0_PKci(ptr noundef nonnull align 8 dereferenceable(40) %18, ptr noundef %19, i32 noundef %22)
  call void @llvm.lifetime.end.p0(i64 8, ptr %8) #3
  call void @llvm.lifetime.end.p0(i64 8, ptr %7) #3
  ret void
}